target datalayout = "e-m:e-p270:32:32-p271:32:32-p272:64:64-i64:64-i128:128-f80:128-n8:16:32:64-S128"
target triple = "x86_64-pc-linux-gnu"

%"class.sat::literal" = type { i32 }
%"struct.sat::local_search::var_info" = type { i8, i32, i8, %"class.sat::literal", i8, i8, i32, i32, i32, %class.svector.1, [2 x %class.svector.11], [2 x %class.svector.4], i32, %class.ema, double }
%class.svector.1 = type { %class.vector.2 }
%class.vector.2 = type { ptr }
%class.svector.11 = type { %class.vector.12 }
%class.vector.12 = type { ptr }
%class.svector.4 = type { %class.vector.5 }
%class.vector.5 = type { ptr }
%class.ema = type { double, double, double, i32, i32 }
%"class.sat::local_search" = type { %"class.sat::i_local_search", %"struct.sat::local_search::stats", %"class.sat::local_search_config", %class.vector, %class.svector, %class.svector.1, %class.vector.3, %class.svector.4, %class.svector.4, i32, i8, i8, %class.svector.1, %class.svector.1, %class.svector.1, i8, i32, double, double, i32, i32, double, double, %class.reslimit, %class.random_gen, ptr, %class.svector.9 }
%"class.sat::i_local_search" = type { ptr }
%"struct.sat::local_search::stats" = type { i32, i32 }
%"class.sat::local_search_config" = type { i32, i32, i32, i8, i8, double }
%class.vector = type { ptr }
%class.svector = type { %class.vector.0 }
%class.vector.0 = type { ptr }
%class.vector.3 = type { ptr }
%class.reslimit = type { %"struct.std::atomic", i8, i64, i64, %class.svector.6, %class.ptr_vector }
%"struct.std::atomic" = type { %"struct.std::__atomic_base" }
%"struct.std::__atomic_base" = type { i32 }
%class.svector.6 = type { %class.vector.7 }
%class.vector.7 = type { ptr }
%class.ptr_vector = type { %class.vector.8 }
%class.vector.8 = type { ptr }
%class.random_gen = type { i32 }
%class.svector.9 = type { %class.vector.10 }
%class.vector.10 = type { ptr }
%"struct.sat::local_search::pbcoeff" = type { i32, i32 }
%"struct.sat::local_search::constraint" = type { i32, i32, i64, i32, %class.svector.4 }

@.str.1 = private unnamed_addr constant [112 x i8] c"generated/home/dtcxzyw/WorkSpace/Projects/compilers/llvm-opt-benchmark/bench/z3/z3/src/sat/sat_local_search.cpp\00", align 1
@.str.11 = private unnamed_addr constant [29 x i8] c"UNEXPECTED CODE WAS REACHED.\00", align 1

; Function Attrs: mustprogress nounwind uwtable
define linkonce_odr hidden noundef i32 @_ZNK6vectorIN3sat12local_search7pbcoeffELb0EjE4sizeEv(ptr noundef nonnull align 8 dereferenceable(8) %0) #6 comdat align 2 {
  %2 = alloca i32, align 4
  %3 = alloca ptr, align 8
  store ptr %0, ptr %3, align 8, !tbaa !104
  %4 = load ptr, ptr %3, align 8
  %5 = getelementptr inbounds nuw %class.vector.12, ptr %4, i32 0, i32 0
  %6 = load ptr, ptr %5, align 8, !tbaa !106
  %7 = icmp eq ptr %6, null
  br i1 %7, label %8, label %9

8:                                                ; preds = %1
  store i32 0, ptr %2, align 4
  br label %14

9:                                                ; preds = %1
  %10 = getelementptr inbounds nuw %class.vector.12, ptr %4, i32 0, i32 0
  %11 = load ptr, ptr %10, align 8, !tbaa !106
  %12 = getelementptr inbounds i32, ptr %11, i64 -1
  %13 = load i32, ptr %12, align 4, !tbaa !10
  store i32 %13, ptr %2, align 4
  br label %14

14:                                               ; preds = %9, %8
  %15 = load i32, ptr %2, align 4
  ret i32 %15
}

; Function Attrs: mustprogress nounwind uwtable
define linkonce_odr hidden noundef zeroext i1 @_ZNK3sat7literal4signEv(ptr noundef nonnull align 4 dereferenceable(4) %0) #6 comdat align 2 {
  %2 = alloca ptr, align 8
  store ptr %0, ptr %2, align 8, !tbaa !72
  %3 = load ptr, ptr %2, align 8
  %4 = getelementptr inbounds nuw %"class.sat::literal", ptr %3, i32 0, i32 0
  %5 = load i32, ptr %4, align 4, !tbaa !126
  %6 = zext i32 %5 to i64
  %7 = and i64 %6, 1
  %8 = icmp ne i64 %7, 0
  ret i1 %8
}

; Function Attrs: mustprogress nounwind uwtable
define linkonce_odr hidden noundef ptr @_ZNK6vectorIN3sat12local_search7pbcoeffELb0EjE3endEv(ptr noundef nonnull align 8 dereferenceable(8) %0) #6 comdat align 2 {
  %2 = alloca ptr, align 8
  store ptr %0, ptr %2, align 8, !tbaa !104
  %3 = load ptr, ptr %2, align 8
  %4 = getelementptr inbounds nuw %class.vector.12, ptr %3, i32 0, i32 0
  %5 = load ptr, ptr %4, align 8, !tbaa !106
  %6 = call noundef i32 @_ZNK6vectorIN3sat12local_search7pbcoeffELb0EjE4sizeEv(ptr noundef nonnull align 8 dereferenceable(8) %3)
  %7 = zext i32 %6 to i64
  %8 = getelementptr inbounds nuw %"struct.sat::local_search::pbcoeff", ptr %5, i64 %7
  ret ptr %8
}

; Function Attrs: mustprogress nounwind uwtable
define linkonce_odr hidden noundef ptr @_ZNK6vectorIN3sat12local_search7pbcoeffELb0EjE5beginEv(ptr noundef nonnull align 8 dereferenceable(8) %0) #6 comdat align 2 {
  %2 = alloca ptr, align 8
  store ptr %0, ptr %2, align 8, !tbaa !104
  %3 = load ptr, ptr %2, align 8
  %4 = getelementptr inbounds nuw %class.vector.12, ptr %3, i32 0, i32 0
  %5 = load ptr, ptr %4, align 8, !tbaa !106
  ret ptr %5
}

; Function Attrs: inlinehint mustprogress nounwind uwtable
define linkonce_odr hidden noundef zeroext i1 @_ZNK3sat12local_search6is_posENS_7literalE(ptr noundef nonnull align 8 dereferenceable(232) %0, i32 %1) #7 comdat align 2 {
  %3 = alloca %"class.sat::literal", align 4
  %4 = alloca ptr, align 8
  %5 = getelementptr inbounds nuw %"class.sat::literal", ptr %3, i32 0, i32 0
  store i32 %1, ptr %5, align 4
  store ptr %0, ptr %4, align 8, !tbaa !3
  %6 = call noundef zeroext i1 @_ZNK3sat7literal4signEv(ptr noundef nonnull align 4 dereferenceable(4) %3)
  %7 = xor i1 %6, true
  ret i1 %7
}

; Function Attrs: mustprogress nounwind uwtable
define linkonce_odr hidden noundef nonnull align 8 dereferenceable(120) ptr @_ZNK6vectorIN3sat12local_search8var_infoELb1EjEixEj(ptr noundef nonnull align 8 dereferenceable(8) %0, i32 noundef %1) #6 comdat align 2 {
  %3 = alloca ptr, align 8
  %4 = alloca i32, align 4
  store ptr %0, ptr %3, align 8, !tbaa !51
  store i32 %1, ptr %4, align 4, !tbaa !10
  %5 = load ptr, ptr %3, align 8
  %6 = getelementptr inbounds nuw %class.vector, ptr %5, i32 0, i32 0
  %7 = load ptr, ptr %6, align 8, !tbaa !73
  %8 = load i32, ptr %4, align 4, !tbaa !10
  %9 = zext i32 %8 to i64
  %10 = getelementptr inbounds nuw %"struct.sat::local_search::var_info", ptr %7, i64 %9
  ret ptr %10
}

; Function Attrs: mustprogress nounwind uwtable
define linkonce_odr hidden noundef i32 @_ZNK3sat7literal3varEv(ptr noundef nonnull align 4 dereferenceable(4) %0) #6 comdat align 2 {
  %2 = alloca ptr, align 8
  store ptr %0, ptr %2, align 8, !tbaa !72
  %3 = load ptr, ptr %2, align 8
  %4 = getelementptr inbounds nuw %"class.sat::literal", ptr %3, i32 0, i32 0
  %5 = load i32, ptr %4, align 4, !tbaa !126
  %6 = lshr i32 %5, 1
  ret i32 %6
}

; Function Attrs: mustprogress uwtable
define hidden noundef i32 @_ZNK3sat12local_search16constraint_coeffERKNS0_10constraintENS_7literalE(ptr noundef nonnull align 8 dereferenceable(232) %0, ptr noundef nonnull align 8 dereferenceable(32) %1, i32 %2) #4 align 2 {
  %4 = alloca i32, align 4
  %5 = alloca %"class.sat::literal", align 4
  %6 = alloca ptr, align 8
  %7 = alloca ptr, align 8
  %8 = alloca ptr, align 8
  %9 = alloca %"class.sat::literal", align 4
  %10 = alloca ptr, align 8
  %11 = alloca ptr, align 8
  %12 = alloca i32, align 4
  %13 = alloca ptr, align 8
  %14 = getelementptr inbounds nuw %"class.sat::literal", ptr %5, i32 0, i32 0
  store i32 %2, ptr %14, align 4
  store ptr %0, ptr %6, align 8, !tbaa !3
  store ptr %1, ptr %7, align 8, !tbaa !98
  %15 = load ptr, ptr %6, align 8
  call void @llvm.lifetime.start.p0(i64 8, ptr %8) #3
  %16 = getelementptr inbounds nuw %"class.sat::local_search", ptr %15, i32 0, i32 3
  %17 = call noundef i32 @_ZNK3sat7literal3varEv(ptr noundef nonnull align 4 dereferenceable(4) %5)
  %18 = call noundef nonnull align 8 dereferenceable(120) ptr @_ZNK6vectorIN3sat12local_search8var_infoELb1EjEixEj(ptr noundef nonnull align 8 dereferenceable(8) %16, i32 noundef %17)
  %19 = getelementptr inbounds nuw %"struct.sat::local_search::var_info", ptr %18, i32 0, i32 10
  call void @llvm.memcpy.p0.p0.i64(ptr align 4 %9, ptr align 4 %5, i64 4, i1 false), !tbaa.struct !122
  %20 = getelementptr inbounds nuw %"class.sat::literal", ptr %9, i32 0, i32 0
  %21 = load i32, ptr %20, align 4
  %22 = call noundef zeroext i1 @_ZNK3sat12local_search6is_posENS_7literalE(ptr noundef nonnull align 8 dereferenceable(232) %15, i32 %21)
  %23 = zext i1 %22 to i64
  %24 = getelementptr inbounds nuw [2 x %class.svector.11], ptr %19, i64 0, i64 %23
  store ptr %24, ptr %8, align 8, !tbaa !92
  call void @llvm.lifetime.start.p0(i64 8, ptr %10) #3
  %25 = load ptr, ptr %8, align 8, !tbaa !92
  %26 = call noundef ptr @_ZNK6vectorIN3sat12local_search7pbcoeffELb0EjE5beginEv(ptr noundef nonnull align 8 dereferenceable(8) %25)
  store ptr %26, ptr %10, align 8, !tbaa !94
  call void @llvm.lifetime.start.p0(i64 8, ptr %11) #3
  %27 = load ptr, ptr %8, align 8, !tbaa !92
  %28 = call noundef ptr @_ZNK6vectorIN3sat12local_search7pbcoeffELb0EjE3endEv(ptr noundef nonnull align 8 dereferenceable(8) %27)
  store ptr %28, ptr %11, align 8, !tbaa !94
  br label %29

29:                                               ; preds = %51, %3
  %30 = load ptr, ptr %10, align 8, !tbaa !94
  %31 = load ptr, ptr %11, align 8, !tbaa !94
  %32 = icmp ne ptr %30, %31
  br i1 %32, label %34, label %33

33:                                               ; preds = %29
  store i32 2, ptr %12, align 4
  br label %54

34:                                               ; preds = %29
  call void @llvm.lifetime.start.p0(i64 8, ptr %13) #3
  %35 = load ptr, ptr %10, align 8, !tbaa !94
  store ptr %35, ptr %13, align 8, !tbaa !94
  %36 = load ptr, ptr %13, align 8, !tbaa !94
  %37 = getelementptr inbounds nuw %"struct.sat::local_search::pbcoeff", ptr %36, i32 0, i32 0
  %38 = load i32, ptr %37, align 4, !tbaa !96
  %39 = load ptr, ptr %7, align 8, !tbaa !98
  %40 = getelementptr inbounds nuw %"struct.sat::local_search::constraint", ptr %39, i32 0, i32 0
  %41 = load i32, ptr %40, align 8, !tbaa !139
  %42 = icmp eq i32 %38, %41
  br i1 %42, label %43, label %47

43:                                               ; preds = %34
  %44 = load ptr, ptr %13, align 8, !tbaa !94
  %45 = getelementptr inbounds nuw %"struct.sat::local_search::pbcoeff", ptr %44, i32 0, i32 1
  %46 = load i32, ptr %45, align 4, !tbaa !99
  store i32 %46, ptr %4, align 4
  store i32 1, ptr %12, align 4
  br label %48

47:                                               ; preds = %34
  store i32 0, ptr %12, align 4
  br label %48

48:                                               ; preds = %47, %43
  call void @llvm.lifetime.end.p0(i64 8, ptr %13) #3
  %49 = load i32, ptr %12, align 4
  switch i32 %49, label %54 [
    i32 0, label %50
  ]

50:                                               ; preds = %48
  br label %51

51:                                               ; preds = %50
  %52 = load ptr, ptr %10, align 8, !tbaa !94
  %53 = getelementptr inbounds nuw %"struct.sat::local_search::pbcoeff", ptr %52, i32 1
  store ptr %53, ptr %10, align 8, !tbaa !94
  br label %29

54:                                               ; preds = %48, %33
  call void @llvm.lifetime.end.p0(i64 8, ptr %11) #3
  call void @llvm.lifetime.end.p0(i64 8, ptr %10) #3
  call void @llvm.lifetime.end.p0(i64 8, ptr %8) #3
  %55 = load i32, ptr %12, align 4
  switch i32 %55, label %59 [
    i32 2, label %56
    i32 1, label %57
  ]

56:                                               ; preds = %54
  call void @_Z26notify_assertion_violationPKciS0_(ptr noundef @.str.1, i32 noundef 257, ptr noundef @.str.11)
  call void @_Z18invoke_exit_actionj(i32 noundef 114)
  store i32 0, ptr %4, align 4
  br label %57

57:                                               ; preds = %56, %54
  %58 = load i32, ptr %4, align 4
  ret i32 %58

59:                                               ; preds = %54
  unreachable
}