; Function Attrs: mustprogress uwtable
define hidden noundef i32 @_ZNK3sat12local_search16constraint_coeffERKNS0_10constraintENS_7literalE(ptr noundef nonnull readonly align 8 captures(none) dereferenceable(232) %0, ptr noundef nonnull readonly align 8 captures(none) dereferenceable(32) %1, i32 %2) local_unnamed_addr #3 align 2 {
  %4 = getelementptr inbounds nuw i8, ptr %0, i64 40
  %5 = lshr i32 %2, 1
  %6 = load ptr, ptr %4, align 8, !tbaa !49
  %7 = zext nneg i32 %5 to i64
  %8 = and i32 %2, 1
  %9 = xor i32 %8, 1
  %10 = zext nneg i32 %9 to i64
  %11 = getelementptr inbounds nuw %"struct.sat::local_search::var_info", ptr %6, i64 %7, i32 10, i64 %10
  %12 = load ptr, ptr %11, align 8, !tbaa !68
  %13 = icmp eq ptr %12, null
  br i1 %13, label %._crit_edge, label %_ZNK6vectorIN3sat12local_search7pbcoeffELb0EjE3endEv.exit

_ZNK6vectorIN3sat12local_search7pbcoeffELb0EjE3endEv.exit: ; preds = %3
  %14 = getelementptr inbounds i8, ptr %12, i64 -4
  %15 = load i32, ptr %14, align 4, !tbaa !13
  %16 = zext i32 %15 to i64
  %17 = getelementptr inbounds nuw %"struct.sat::local_search::pbcoeff", ptr %12, i64 %16
  %.not24 = icmp eq i32 %15, 0
  br i1 %.not24, label %._crit_edge, label %.lr.ph

.lr.ph:                                           ; preds = %_ZNK6vectorIN3sat12local_search7pbcoeffELb0EjE3endEv.exit
  %18 = load i32, ptr %1, align 8, !tbaa !107
  br label %19

19:                                               ; preds = %.lr.ph, %21
  %.01425 = phi ptr [ %12, %.lr.ph ], [ %22, %21 ]
  %20 = load i32, ptr %.01425, align 4, !tbaa !79
  %.not15 = icmp eq i32 %20, %18
  br i1 %.not15, label %23, label %21

21:                                               ; preds = %19
  %22 = getelementptr inbounds nuw i8, ptr %.01425, i64 8
  %.not = icmp eq ptr %22, %17
  br i1 %.not, label %._crit_edge, label %19

23:                                               ; preds = %19
  %24 = getelementptr inbounds nuw i8, ptr %.01425, i64 4
  %25 = load i32, ptr %24, align 4, !tbaa !81
  br label %26

._crit_edge:                                      ; preds = %21, %3, %_ZNK6vectorIN3sat12local_search7pbcoeffELb0EjE3endEv.exit
  tail call void @_Z26notify_assertion_violationPKciS0_(ptr noundef nonnull @.str.1, i32 noundef 257, ptr noundef nonnull @.str.11)
  tail call void @_Z18invoke_exit_actionj(i32 noundef 114)
  br label %26

26:                                               ; preds = %23, %._crit_edge
  %.3 = phi i32 [ %25, %23 ], [ 0, %._crit_edge ]
  ret i32 %.3
}